	.syntax unified
	.arch armv7-a
	.eabi_attribute 27, 3
	.eabi_attribute 28, 1
	.fpu vfpv3-d16
	.eabi_attribute 20, 1
	.eabi_attribute 21, 1
	.eabi_attribute 23, 3
	.eabi_attribute 24, 1
	.eabi_attribute 25, 1
	.eabi_attribute 26, 2
	.eabi_attribute 30, 6
	.eabi_attribute 18, 4
	.thumb
	.file	"processed.cpp"
	.local	_ZStL8__ioinit
	.comm	_ZStL8__ioinit,1,4
	.text
	.align	2
	.global	main
	.thumb
	.thumb_func
	.type	main, %function
main:
	.fnstart
.LFB966:
	@ args = 0, pretend = 0, frame = 8
	@ frame_needed = 1, uses_anonymous_args = 0
	@ link register save eliminated.
	push	{r7}
	sub	sp, sp, #12
	add	r7, sp, #0
	str	r0, [r7, #4]
	str	r1, [r7, #0]
	mov	r3, #0
	mov	r0, r3
	add	r7, r7, #12
	mov	sp, r7
	pop	{r7}
	bx	lr
	.cantunwind
	.fnend
	.size	main, .-main
	.align	2
	.thumb
	.thumb_func
	.type	_Z41__static_initialization_and_destruction_0ii, %function
_Z41__static_initialization_and_destruction_0ii:
	.fnstart
.LFB967:
	@ args = 0, pretend = 0, frame = 8
	@ frame_needed = 1, uses_anonymous_args = 0
	push	{r7, lr}
	sub	sp, sp, #8
	add	r7, sp, #0
	str	r0, [r7, #4]
	str	r1, [r7, #0]
	ldr	r3, [r7, #4]
	cmp	r3, #1
	bne	.L2
	ldr	r2, [r7, #0]
	movw	r3, #65535
	cmp	r2, r3
	bne	.L2
	movw	r0, #:lower16:_ZStL8__ioinit
	movt	r0, #:upper16:_ZStL8__ioinit
	bl	_ZNSt8ios_base4InitC1Ev
	movw	r3, #:lower16:_ZNSt8ios_base4InitD1Ev
	movt	r3, #:upper16:_ZNSt8ios_base4InitD1Ev
	movw	r0, #:lower16:_ZStL8__ioinit
	movt	r0, #:upper16:_ZStL8__ioinit
	mov	r1, r3
	movw	r2, #:lower16:__dso_handle
	movt	r2, #:upper16:__dso_handle
	bl	__aeabi_atexit
.L2:
	add	r7, r7, #8
	mov	sp, r7
	pop	{r7, pc}
	.cantunwind
	.fnend
	.size	_Z41__static_initialization_and_destruction_0ii, .-_Z41__static_initialization_and_destruction_0ii
	.align	2
	.thumb
	.thumb_func
	.type	_GLOBAL__sub_I_main, %function
_GLOBAL__sub_I_main:
	.fnstart
.LFB968:
	@ args = 0, pretend = 0, frame = 0
	@ frame_needed = 1, uses_anonymous_args = 0
	push	{r7, lr}
	add	r7, sp, #0
	mov	r0, #1
	movw	r1, #65535
	bl	_Z41__static_initialization_and_destruction_0ii
	pop	{r7, pc}
	.cantunwind
	.fnend
	.size	_GLOBAL__sub_I_main, .-_GLOBAL__sub_I_main
	.section	.init_array,"aw",%init_array
	.align	2
	.word	_GLOBAL__sub_I_main(target1)
	.weakref	_ZL20__gthrw_pthread_oncePiPFvvE,pthread_once
	.weakref	_ZL27__gthrw_pthread_getspecificj,pthread_getspecific
	.weakref	_ZL27__gthrw_pthread_setspecificjPKv,pthread_setspecific
	.weakref	_ZL22__gthrw_pthread_createPmPK14pthread_attr_tPFPvS3_ES3_,pthread_create
	.weakref	_ZL20__gthrw_pthread_joinmPPv,pthread_join
	.weakref	_ZL21__gthrw_pthread_equalmm,pthread_equal
	.weakref	_ZL20__gthrw_pthread_selfv,pthread_self
	.weakref	_ZL22__gthrw_pthread_detachm,pthread_detach
	.weakref	_ZL22__gthrw_pthread_cancelm,pthread_cancel
	.weakref	_ZL19__gthrw_sched_yieldv,sched_yield
	.weakref	_ZL26__gthrw_pthread_mutex_lockP15pthread_mutex_t,pthread_mutex_lock
	.weakref	_ZL29__gthrw_pthread_mutex_trylockP15pthread_mutex_t,pthread_mutex_trylock
	.weakref	_ZL31__gthrw_pthread_mutex_timedlockP15pthread_mutex_tPK8timespec,pthread_mutex_timedlock
	.weakref	_ZL28__gthrw_pthread_mutex_unlockP15pthread_mutex_t,pthread_mutex_unlock
	.weakref	_ZL26__gthrw_pthread_mutex_initP15pthread_mutex_tPK19pthread_mutexattr_t,pthread_mutex_init
	.weakref	_ZL29__gthrw_pthread_mutex_destroyP15pthread_mutex_t,pthread_mutex_destroy
	.weakref	_ZL30__gthrw_pthread_cond_broadcastP14pthread_cond_t,pthread_cond_broadcast
	.weakref	_ZL27__gthrw_pthread_cond_signalP14pthread_cond_t,pthread_cond_signal
	.weakref	_ZL25__gthrw_pthread_cond_waitP14pthread_cond_tP15pthread_mutex_t,pthread_cond_wait
	.weakref	_ZL30__gthrw_pthread_cond_timedwaitP14pthread_cond_tP15pthread_mutex_tPK8timespec,pthread_cond_timedwait
	.weakref	_ZL28__gthrw_pthread_cond_destroyP14pthread_cond_t,pthread_cond_destroy
	.weakref	_ZL26__gthrw_pthread_key_createPjPFvPvE,pthread_key_create
	.weakref	_ZL26__gthrw_pthread_key_deletej,pthread_key_delete
	.weakref	_ZL30__gthrw_pthread_mutexattr_initP19pthread_mutexattr_t,pthread_mutexattr_init
	.weakref	_ZL33__gthrw_pthread_mutexattr_settypeP19pthread_mutexattr_ti,pthread_mutexattr_settype
	.weakref	_ZL33__gthrw_pthread_mutexattr_destroyP19pthread_mutexattr_t,pthread_mutexattr_destroy
	.ident	"GCC: (Debian 4.6.3-14) 4.6.3"
	.section	.note.GNU-stack,"",%progbits
